; Function Attrs: mustprogress nounwind uwtable
define void @_ZN7glslang7TShader12addProcessesERKSt6vectorINSt7__cxx1112basic_stringIcSt11char_traitsIcESaIcEEESaIS7_EE(ptr noundef nonnull readonly align 8 captures(none) dereferenceable(165) %0, ptr noundef nonnull readonly align 8 captures(none) dereferenceable(24) %1) local_unnamed_addr #3 align 2 {
  %3 = getelementptr inbounds nuw i8, ptr %1, i64 8
  %4 = load ptr, ptr %3, align 8
  %5 = load ptr, ptr %1, align 8
  %6 = ptrtoint ptr %4 to i64
  %7 = ptrtoint ptr %5 to i64
  %8 = sub i64 %6, %7
  %9 = lshr exact i64 %8, 5
  %10 = trunc i64 %9 to i32
  %11 = icmp sgt i32 %10, 0
  br i1 %11, label %.lr.ph.i, label %_ZN7glslang13TIntermediate12addProcessesERKSt6vectorINSt7__cxx1112basic_stringIcSt11char_traitsIcESaIcEEESaIS7_EE.exit

.lr.ph.i:                                         ; preds = %2
  %12 = getelementptr inbounds nuw i8, ptr %0, i64 32
  %13 = load ptr, ptr %12, align 8
  %14 = getelementptr inbounds nuw i8, ptr %13, i64 2008
  %15 = getelementptr inbounds nuw i8, ptr %13, i64 2016
  %16 = getelementptr inbounds nuw i8, ptr %13, i64 2000
  br label %17

17:                                               ; preds = %_ZN7glslang10TProcesses10addProcessERKNSt7__cxx1112basic_stringIcSt11char_traitsIcESaIcEEE.exit.i, %.lr.ph.i
  %indvars.iv.i = phi i64 [ 0, %.lr.ph.i ], [ %indvars.iv.next.i, %_ZN7glslang10TProcesses10addProcessERKNSt7__cxx1112basic_stringIcSt11char_traitsIcESaIcEEE.exit.i ]
  %18 = phi ptr [ %5, %.lr.ph.i ], [ %27, %_ZN7glslang10TProcesses10addProcessERKNSt7__cxx1112basic_stringIcSt11char_traitsIcESaIcEEE.exit.i ]
  %19 = getelementptr inbounds nuw %"class.std::__cxx11::basic_string", ptr %18, i64 %indvars.iv.i
  %20 = load ptr, ptr %14, align 8
  %21 = load ptr, ptr %15, align 8
  %.not.i.i.i = icmp eq ptr %20, %21
  br i1 %.not.i.i.i, label %25, label %22

22:                                               ; preds = %17
  tail call void @_ZNSt7__cxx1112basic_stringIcSt11char_traitsIcESaIcEEC1ERKS4_(ptr noundef nonnull align 8 dereferenceable(32) %20, ptr noundef nonnull align 8 dereferenceable(32) %19) #24
  %23 = load ptr, ptr %14, align 8
  %24 = getelementptr inbounds nuw i8, ptr %23, i64 32
  store ptr %24, ptr %14, align 8
  br label %_ZN7glslang10TProcesses10addProcessERKNSt7__cxx1112basic_stringIcSt11char_traitsIcESaIcEEE.exit.i

25:                                               ; preds = %17
  tail call void @_ZNSt6vectorINSt7__cxx1112basic_stringIcSt11char_traitsIcESaIcEEESaIS5_EE17_M_realloc_insertIJRKS5_EEEvN9__gnu_cxx17__normal_iteratorIPS5_S7_EEDpOT_(ptr noundef nonnull align 8 dereferenceable(24) %16, ptr %20, ptr noundef nonnull align 8 dereferenceable(32) %19)
  br label %_ZN7glslang10TProcesses10addProcessERKNSt7__cxx1112basic_stringIcSt11char_traitsIcESaIcEEE.exit.i

_ZN7glslang10TProcesses10addProcessERKNSt7__cxx1112basic_stringIcSt11char_traitsIcESaIcEEE.exit.i: ; preds = %25, %22
  %indvars.iv.next.i = add nuw nsw i64 %indvars.iv.i, 1
  %26 = load ptr, ptr %3, align 8
  %27 = load ptr, ptr %1, align 8
  %28 = ptrtoint ptr %26 to i64
  %29 = ptrtoint ptr %27 to i64
  %30 = sub i64 %28, %29
  %sext.i = shl i64 %30, 27
  %31 = ashr i64 %sext.i, 32
  %32 = icmp slt i64 %indvars.iv.next.i, %31
  br i1 %32, label %17, label %_ZN7glslang13TIntermediate12addProcessesERKSt6vectorINSt7__cxx1112basic_stringIcSt11char_traitsIcESaIcEEESaIS7_EE.exit, !llvm.loop !29

_ZN7glslang13TIntermediate12addProcessesERKSt6vectorINSt7__cxx1112basic_stringIcSt11char_traitsIcESaIcEEESaIS7_EE.exit: ; preds = %_ZN7glslang10TProcesses10addProcessERKNSt7__cxx1112basic_stringIcSt11char_traitsIcESaIcEEE.exit.i, %2
  ret void
}